c__builtin__
set
p1
((lp2
S'http://baike.baidu.com/item/%E8%BF%98%E5%8E%9F%E7%B2%BE%E7%81%B5'
p3
aS'http://baike.baidu.com/item/%E6%8C%82%E9%A9%AC'
p4
aS'http://baike.baidu.com/item/%E8%BF%98%E5%8E%9F%E5%8D%A1'
p5
aS'http://baike.baidu.com/item/%E4%B8%BB%E5%8A%A8%E9%98%B2%E5%BE%A1'
p6
atRp7
.